; Function Attrs: nounwind uwtable
define dso_local ptr @tr2tls_get_self() local_unnamed_addr #0 {
  %1 = load i32, ptr @tr2tls_key, align 4, !tbaa !18
  %2 = tail call ptr @pthread_getspecific(i32 noundef %1) #11
  %.not = icmp eq ptr %2, null
  br i1 %.not, label %3, label %7

3:                                                ; preds = %0
  %4 = tail call i64 @getnanotime() #11
  %5 = udiv i64 %4, 1000
  %6 = tail call ptr @tr2tls_create_self(ptr noundef nonnull @.str.1, i64 noundef %5)
  br label %7

7:                                                ; preds = %3, %0
  %.0 = phi ptr [ %2, %0 ], [ %6, %3 ]
  ret ptr %.0
}